target datalayout = "e-m:e-p270:32:32-p271:32:32-p272:64:64-i64:64-i128:128-f80:128-n8:16:32:64-S128"
target triple = "x86_64-pc-linux-gnu"

%"class.boost::serialization::detail::singleton_wrapper" = type { %"class.std::multiset" }
%"class.std::multiset" = type { %"class.std::_Rb_tree" }
%"class.std::_Rb_tree" = type { %"struct.std::_Rb_tree<const boost::serialization::extended_type_info *, const boost::serialization::extended_type_info *, std::_Identity<const boost::serialization::extended_type_info *>, boost::serialization::detail::key_compare>::_Rb_tree_impl" }
%"struct.std::_Rb_tree<const boost::serialization::extended_type_info *, const boost::serialization::extended_type_info *, std::_Identity<const boost::serialization::extended_type_info *>, boost::serialization::detail::key_compare>::_Rb_tree_impl" = type { [8 x i8], %"struct.std::_Rb_tree_header" }
%"struct.std::_Rb_tree_header" = type { %"struct.std::_Rb_tree_node_base", i64 }
%"struct.std::_Rb_tree_node_base" = type { i32, ptr, ptr, ptr }
%"struct.std::_Rb_tree_const_iterator" = type { ptr }
%"class.boost::serialization::extended_type_info" = type { ptr, i32, ptr }
%"struct.std::_Rb_tree_iterator" = type { ptr }

@_ZN5boost13serialization9singletonISt8multisetIPKNS0_18extended_type_infoENS0_6detail11key_compareESaIS5_EEE10m_instanceE = linkonce_odr hidden global ptr null, comdat, align 8
@_ZZN5boost13serialization9singletonISt8multisetIPKNS0_18extended_type_infoENS0_6detail11key_compareESaIS5_EEE12get_instanceEvE1t = linkonce_odr hidden global %"class.boost::serialization::detail::singleton_wrapper" zeroinitializer, comdat, align 8
@_ZGVZN5boost13serialization9singletonISt8multisetIPKNS0_18extended_type_infoENS0_6detail11key_compareESaIS5_EEE12get_instanceEvE1t = linkonce_odr hidden global i64 0, comdat, align 8
@__dso_handle = external hidden global i8

; Function Attrs: noinline noreturn nounwind uwtable
define linkonce_odr hidden void @__clang_call_terminate(ptr noundef %0) #8 comdat {
  %2 = call ptr @__cxa_begin_catch(ptr %0) #7
  call void @_ZSt9terminatev() #15
  unreachable
}

; Function Attrs: mustprogress nounwind uwtable
define linkonce_odr hidden void @_ZNSt15_Rb_tree_header8_M_resetEv(ptr noundef nonnull align 8 dereferenceable(40) %0) #0 comdat align 2 {
  %2 = alloca ptr, align 8
  store ptr %0, ptr %2, align 8, !tbaa !3
  %3 = load ptr, ptr %2, align 8
  %4 = getelementptr inbounds nuw %"struct.std::_Rb_tree_header", ptr %3, i32 0, i32 0
  %5 = getelementptr inbounds nuw %"struct.std::_Rb_tree_node_base", ptr %4, i32 0, i32 1
  store ptr null, ptr %5, align 8, !tbaa !27
  %6 = getelementptr inbounds nuw %"struct.std::_Rb_tree_header", ptr %3, i32 0, i32 0
  %7 = getelementptr inbounds nuw %"struct.std::_Rb_tree_header", ptr %3, i32 0, i32 0
  %8 = getelementptr inbounds nuw %"struct.std::_Rb_tree_node_base", ptr %7, i32 0, i32 2
  store ptr %6, ptr %8, align 8, !tbaa !28
  %9 = getelementptr inbounds nuw %"struct.std::_Rb_tree_header", ptr %3, i32 0, i32 0
  %10 = getelementptr inbounds nuw %"struct.std::_Rb_tree_header", ptr %3, i32 0, i32 0
  %11 = getelementptr inbounds nuw %"struct.std::_Rb_tree_node_base", ptr %10, i32 0, i32 3
  store ptr %9, ptr %11, align 8, !tbaa !29
  %12 = getelementptr inbounds nuw %"struct.std::_Rb_tree_header", ptr %3, i32 0, i32 1
  store i64 0, ptr %12, align 8, !tbaa !30
  ret void
}

; Function Attrs: mustprogress nounwind uwtable
define linkonce_odr hidden void @_ZNSt15__new_allocatorISt13_Rb_tree_nodeIPKN5boost13serialization18extended_type_infoEEEC2Ev(ptr noundef nonnull align 1 dereferenceable(1) %0) unnamed_addr #0 comdat align 2 {
  %2 = alloca ptr, align 8
  store ptr %0, ptr %2, align 8, !tbaa !3
  ret void
}

; Function Attrs: mustprogress nounwind uwtable
define linkonce_odr hidden void @_ZNSt15_Rb_tree_headerC2Ev(ptr noundef nonnull align 8 dereferenceable(40) %0) unnamed_addr #0 comdat align 2 personality ptr @__gxx_personality_v0 {
  %2 = alloca ptr, align 8
  store ptr %0, ptr %2, align 8, !tbaa !3
  %3 = load ptr, ptr %2, align 8
  %4 = getelementptr inbounds nuw %"struct.std::_Rb_tree_header", ptr %3, i32 0, i32 0
  %5 = getelementptr inbounds nuw %"struct.std::_Rb_tree_node_base", ptr %4, i32 0, i32 0
  store i32 0, ptr %5, align 8, !tbaa !22
  invoke void @_ZNSt15_Rb_tree_header8_M_resetEv(ptr noundef nonnull align 8 dereferenceable(40) %3)
          to label %6 unwind label %7

6:                                                ; preds = %1
  ret void

7:                                                ; preds = %1
  %8 = landingpad { ptr, i32 }
          catch ptr null
  %9 = extractvalue { ptr, i32 } %8, 0
  call void @__clang_call_terminate(ptr %9) #15
  unreachable
}

; Function Attrs: mustprogress nounwind uwtable
define linkonce_odr hidden void @_ZNSt20_Rb_tree_key_compareIN5boost13serialization6detail11key_compareEEC2Ev(ptr noundef nonnull align 1 dereferenceable(1) %0) unnamed_addr #0 comdat align 2 {
  %2 = alloca ptr, align 8
  store ptr %0, ptr %2, align 8, !tbaa !3
  ret void
}

; Function Attrs: mustprogress nounwind uwtable
define linkonce_odr hidden void @_ZNSaISt13_Rb_tree_nodeIPKN5boost13serialization18extended_type_infoEEEC2Ev(ptr noundef nonnull align 1 dereferenceable(1) %0) unnamed_addr #0 comdat align 2 {
  %2 = alloca ptr, align 8
  store ptr %0, ptr %2, align 8, !tbaa !3
  %3 = load ptr, ptr %2, align 8
  call void @_ZNSt15__new_allocatorISt13_Rb_tree_nodeIPKN5boost13serialization18extended_type_infoEEEC2Ev(ptr noundef nonnull align 1 dereferenceable(1) %3) #7
  ret void
}

; Function Attrs: mustprogress nounwind uwtable
define linkonce_odr hidden void @_ZNSt8_Rb_treeIPKN5boost13serialization18extended_type_infoES4_St9_IdentityIS4_ENS1_6detail11key_compareESaIS4_EE13_Rb_tree_implIS8_Lb1EEC2Ev(ptr noundef nonnull align 8 dereferenceable(48) %0) unnamed_addr #0 comdat align 2 {
  %2 = alloca ptr, align 8
  store ptr %0, ptr %2, align 8, !tbaa !3
  %3 = load ptr, ptr %2, align 8
  call void @_ZNSaISt13_Rb_tree_nodeIPKN5boost13serialization18extended_type_infoEEEC2Ev(ptr noundef nonnull align 1 dereferenceable(1) %3) #7
  call void @_ZNSt20_Rb_tree_key_compareIN5boost13serialization6detail11key_compareEEC2Ev(ptr noundef nonnull align 1 dereferenceable(1) %3) #7
  %4 = getelementptr inbounds i8, ptr %3, i64 8
  call void @_ZNSt15_Rb_tree_headerC2Ev(ptr noundef nonnull align 8 dereferenceable(40) %4) #7
  ret void
}

; Function Attrs: mustprogress nounwind uwtable
define linkonce_odr hidden void @_ZNSt8_Rb_treeIPKN5boost13serialization18extended_type_infoES4_St9_IdentityIS4_ENS1_6detail11key_compareESaIS4_EEC2Ev(ptr noundef nonnull align 8 dereferenceable(48) %0) unnamed_addr #0 comdat align 2 {
  %2 = alloca ptr, align 8
  store ptr %0, ptr %2, align 8, !tbaa !3
  %3 = load ptr, ptr %2, align 8
  %4 = getelementptr inbounds nuw %"class.std::_Rb_tree", ptr %3, i32 0, i32 0
  call void @_ZNSt8_Rb_treeIPKN5boost13serialization18extended_type_infoES4_St9_IdentityIS4_ENS1_6detail11key_compareESaIS4_EE13_Rb_tree_implIS8_Lb1EEC2Ev(ptr noundef nonnull align 8 dereferenceable(48) %4) #7
  ret void
}

; Function Attrs: mustprogress nounwind uwtable
define linkonce_odr hidden void @_ZNSt8multisetIPKN5boost13serialization18extended_type_infoENS1_6detail11key_compareESaIS4_EEC2Ev(ptr noundef nonnull align 8 dereferenceable(48) %0) unnamed_addr #0 comdat align 2 {
  %2 = alloca ptr, align 8
  store ptr %0, ptr %2, align 8, !tbaa !3
  %3 = load ptr, ptr %2, align 8
  %4 = getelementptr inbounds nuw %"class.std::multiset", ptr %3, i32 0, i32 0
  call void @_ZNSt8_Rb_treeIPKN5boost13serialization18extended_type_infoES4_St9_IdentityIS4_ENS1_6detail11key_compareESaIS4_EEC2Ev(ptr noundef nonnull align 8 dereferenceable(48) %4) #7
  ret void
}

; Function Attrs: mustprogress nounwind uwtable
define linkonce_odr hidden void @_ZN5boost13serialization9singletonISt8multisetIPKNS0_18extended_type_infoENS0_6detail11key_compareESaIS5_EEE3useERKS9_(ptr noundef nonnull align 8 dereferenceable(48) %0) #0 comdat align 2 {
  %2 = alloca ptr, align 8
  store ptr %0, ptr %2, align 8, !tbaa !3
  ret void
}

; Function Attrs: mustprogress nounwind uwtable
define linkonce_odr hidden void @_ZN5boost13serialization6detail17singleton_wrapperISt8multisetIPKNS0_18extended_type_infoENS1_11key_compareESaIS6_EEEC2Ev(ptr noundef nonnull align 8 dereferenceable(48) %0) unnamed_addr #0 comdat align 2 {
  %2 = alloca ptr, align 8
  store ptr %0, ptr %2, align 8, !tbaa !3
  %3 = load ptr, ptr %2, align 8
  call void @_ZNSt8multisetIPKN5boost13serialization18extended_type_infoENS1_6detail11key_compareESaIS4_EEC2Ev(ptr noundef nonnull align 8 dereferenceable(48) %3) #7
  ret void
}

; Function Attrs: mustprogress nounwind uwtable
define linkonce_odr hidden void @_ZNSt23_Rb_tree_const_iteratorIPKN5boost13serialization18extended_type_infoEEC2ERKSt17_Rb_tree_iteratorIS4_E(ptr noundef nonnull align 8 dereferenceable(8) %0, ptr noundef nonnull align 8 dereferenceable(8) %1) unnamed_addr #0 comdat align 2 {
  %3 = alloca ptr, align 8
  %4 = alloca ptr, align 8
  store ptr %0, ptr %3, align 8, !tbaa !3
  store ptr %1, ptr %4, align 8, !tbaa !3
  %5 = load ptr, ptr %3, align 8
  %6 = getelementptr inbounds nuw %"struct.std::_Rb_tree_const_iterator", ptr %5, i32 0, i32 0
  %7 = load ptr, ptr %4, align 8, !tbaa !3
  %8 = getelementptr inbounds nuw %"struct.std::_Rb_tree_iterator", ptr %7, i32 0, i32 0
  %9 = load ptr, ptr %8, align 8, !tbaa !38
  store ptr %9, ptr %6, align 8, !tbaa !13
  ret void
}

; Function Attrs: mustprogress uwtable
define linkonce_odr hidden noundef nonnull align 8 dereferenceable(48) ptr @_ZN5boost13serialization9singletonISt8multisetIPKNS0_18extended_type_infoENS0_6detail11key_compareESaIS5_EEE12get_instanceEv() #1 comdat align 2 personality ptr @__gxx_personality_v0 {
  %1 = alloca ptr, align 8
  %2 = alloca i32, align 4
  %3 = load atomic i8, ptr @_ZGVZN5boost13serialization9singletonISt8multisetIPKNS0_18extended_type_infoENS0_6detail11key_compareESaIS5_EEE12get_instanceEvE1t acquire, align 8
  %4 = icmp eq i8 %3, 0
  br i1 %4, label %5, label %11, !prof !19

5:                                                ; preds = %0
  %6 = call i32 @__cxa_guard_acquire(ptr @_ZGVZN5boost13serialization9singletonISt8multisetIPKNS0_18extended_type_infoENS0_6detail11key_compareESaIS5_EEE12get_instanceEvE1t) #7
  %7 = icmp ne i32 %6, 0
  br i1 %7, label %8, label %11

8:                                                ; preds = %5
  invoke void @_ZN5boost13serialization6detail17singleton_wrapperISt8multisetIPKNS0_18extended_type_infoENS1_11key_compareESaIS6_EEEC2Ev(ptr noundef nonnull align 8 dereferenceable(48) @_ZZN5boost13serialization9singletonISt8multisetIPKNS0_18extended_type_infoENS0_6detail11key_compareESaIS5_EEE12get_instanceEvE1t)
          to label %9 unwind label %16

9:                                                ; preds = %8
  %10 = call i32 @__cxa_atexit(ptr @_ZN5boost13serialization6detail17singleton_wrapperISt8multisetIPKNS0_18extended_type_infoENS1_11key_compareESaIS6_EEED2Ev, ptr @_ZZN5boost13serialization9singletonISt8multisetIPKNS0_18extended_type_infoENS0_6detail11key_compareESaIS5_EEE12get_instanceEvE1t, ptr @__dso_handle) #7
  call void @__cxa_guard_release(ptr @_ZGVZN5boost13serialization9singletonISt8multisetIPKNS0_18extended_type_infoENS0_6detail11key_compareESaIS5_EEE12get_instanceEvE1t) #7
  br label %11

11:                                               ; preds = %9, %5, %0
  %12 = load ptr, ptr @_ZN5boost13serialization9singletonISt8multisetIPKNS0_18extended_type_infoENS0_6detail11key_compareESaIS5_EEE10m_instanceE, align 8, !tbaa !3
  %13 = icmp ne ptr %12, null
  br i1 %13, label %14, label %20

14:                                               ; preds = %11
  %15 = load ptr, ptr @_ZN5boost13serialization9singletonISt8multisetIPKNS0_18extended_type_infoENS0_6detail11key_compareESaIS5_EEE10m_instanceE, align 8, !tbaa !3
  call void @_ZN5boost13serialization9singletonISt8multisetIPKNS0_18extended_type_infoENS0_6detail11key_compareESaIS5_EEE3useERKS9_(ptr noundef nonnull align 8 dereferenceable(48) %15)
  br label %20

16:                                               ; preds = %8
  %17 = landingpad { ptr, i32 }
          cleanup
  %18 = extractvalue { ptr, i32 } %17, 0
  store ptr %18, ptr %1, align 8
  %19 = extractvalue { ptr, i32 } %17, 1
  store i32 %19, ptr %2, align 4
  call void @__cxa_guard_abort(ptr @_ZGVZN5boost13serialization9singletonISt8multisetIPKNS0_18extended_type_infoENS0_6detail11key_compareESaIS5_EEE12get_instanceEvE1t) #7
  br label %21

20:                                               ; preds = %14, %11
  ret ptr @_ZZN5boost13serialization9singletonISt8multisetIPKNS0_18extended_type_infoENS0_6detail11key_compareESaIS5_EEE12get_instanceEvE1t

21:                                               ; preds = %16
  %22 = load ptr, ptr %1, align 8
  %23 = load i32, ptr %2, align 4
  %24 = insertvalue { ptr, i32 } poison, ptr %22, 0
  %25 = insertvalue { ptr, i32 } %24, i32 %23, 1
  resume { ptr, i32 } %25
}

; Function Attrs: mustprogress uwtable
define linkonce_odr hidden ptr @_ZNSt8multisetIPKN5boost13serialization18extended_type_infoENS1_6detail11key_compareESaIS4_EE6insertEOS4_(ptr noundef nonnull align 8 dereferenceable(48) %0, ptr noundef nonnull align 8 dereferenceable(8) %1) #1 comdat align 2 {
  %3 = alloca %"struct.std::_Rb_tree_const_iterator", align 8
  %4 = alloca ptr, align 8
  %5 = alloca ptr, align 8
  %6 = alloca %"struct.std::_Rb_tree_iterator", align 8
  store ptr %0, ptr %4, align 8, !tbaa !3
  store ptr %1, ptr %5, align 8, !tbaa !3
  %7 = load ptr, ptr %4, align 8
  call void @llvm.lifetime.start.p0(i64 8, ptr %6) #7
  %8 = getelementptr inbounds nuw %"class.std::multiset", ptr %7, i32 0, i32 0
  %9 = load ptr, ptr %5, align 8, !tbaa !3
  %10 = call ptr @_ZNSt8_Rb_treeIPKN5boost13serialization18extended_type_infoES4_St9_IdentityIS4_ENS1_6detail11key_compareESaIS4_EE15_M_insert_equalIS4_EESt17_Rb_tree_iteratorIS4_EOT_(ptr noundef nonnull align 8 dereferenceable(48) %8, ptr noundef nonnull align 8 dereferenceable(8) %9)
  %11 = getelementptr inbounds nuw %"struct.std::_Rb_tree_iterator", ptr %6, i32 0, i32 0
  store ptr %10, ptr %11, align 8
  call void @_ZNSt23_Rb_tree_const_iteratorIPKN5boost13serialization18extended_type_infoEEC2ERKSt17_Rb_tree_iteratorIS4_E(ptr noundef nonnull align 8 dereferenceable(8) %3, ptr noundef nonnull align 8 dereferenceable(8) %6) #7
  call void @llvm.lifetime.end.p0(i64 8, ptr %6) #7
  %12 = getelementptr inbounds nuw %"struct.std::_Rb_tree_const_iterator", ptr %3, i32 0, i32 0
  %13 = load ptr, ptr %12, align 8
  ret ptr %13
}

; Function Attrs: mustprogress uwtable
define linkonce_odr hidden noundef nonnull align 8 dereferenceable(48) ptr @_ZN5boost13serialization9singletonISt8multisetIPKNS0_18extended_type_infoENS0_6detail11key_compareESaIS5_EEE20get_mutable_instanceEv() #1 comdat align 2 {
  %1 = call noundef nonnull align 8 dereferenceable(48) ptr @_ZN5boost13serialization9singletonISt8multisetIPKNS0_18extended_type_infoENS0_6detail11key_compareESaIS5_EEE12get_instanceEv()
  ret ptr %1
}

; Function Attrs: mustprogress nounwind uwtable
define linkonce_odr hidden noundef ptr @_ZNK5boost13serialization18extended_type_info7get_keyEv(ptr noundef nonnull align 8 dereferenceable(24) %0) #0 comdat align 2 {
  %2 = alloca ptr, align 8
  store ptr %0, ptr %2, align 8, !tbaa !3
  %3 = load ptr, ptr %2, align 8
  %4 = getelementptr inbounds nuw %"class.boost::serialization::extended_type_info", ptr %3, i32 0, i32 2
  %5 = load ptr, ptr %4, align 8, !tbaa !7
  ret ptr %5
}

; Function Attrs: mustprogress uwtable
define void @_ZNK5boost13serialization18extended_type_info12key_registerEv(ptr noundef nonnull align 8 dereferenceable(24) %0) #1 align 2 {
  %2 = alloca ptr, align 8
  %3 = alloca ptr, align 8
  %4 = alloca %"struct.std::_Rb_tree_const_iterator", align 8
  store ptr %0, ptr %2, align 8, !tbaa !3
  %5 = load ptr, ptr %2, align 8
  %6 = call noundef ptr @_ZNK5boost13serialization18extended_type_info7get_keyEv(ptr noundef nonnull align 8 dereferenceable(24) %5)
  %7 = icmp eq ptr null, %6
  br i1 %7, label %8, label %9

8:                                                ; preds = %1
  br label %13

9:                                                ; preds = %1
  %10 = call noundef nonnull align 8 dereferenceable(48) ptr @_ZN5boost13serialization9singletonISt8multisetIPKNS0_18extended_type_infoENS0_6detail11key_compareESaIS5_EEE20get_mutable_instanceEv()
  call void @llvm.lifetime.start.p0(i64 8, ptr %3) #7
  store ptr %5, ptr %3, align 8, !tbaa !3
  %11 = call ptr @_ZNSt8multisetIPKN5boost13serialization18extended_type_infoENS1_6detail11key_compareESaIS4_EE6insertEOS4_(ptr noundef nonnull align 8 dereferenceable(48) %10, ptr noundef nonnull align 8 dereferenceable(8) %3)
  %12 = getelementptr inbounds nuw %"struct.std::_Rb_tree_const_iterator", ptr %4, i32 0, i32 0
  store ptr %11, ptr %12, align 8
  call void @llvm.lifetime.end.p0(i64 8, ptr %3) #7
  br label %13

13:                                               ; preds = %9, %8
  ret void
}