; Function Attrs: mustprogress uwtable
define void @_ZNK5boost13serialization18extended_type_info12key_registerEv(ptr noundef nonnull align 8 dereferenceable(24) %0) local_unnamed_addr #1 align 2 personality ptr @__gxx_personality_v0 {
  %2 = alloca ptr, align 8
  %3 = getelementptr inbounds nuw i8, ptr %0, i64 16
  %4 = load ptr, ptr %3, align 8, !tbaa !3
  %5 = icmp eq ptr %4, null
  br i1 %5, label %14, label %6

6:                                                ; preds = %1
  %7 = load atomic i8, ptr @_ZGVZN5boost13serialization9singletonISt8multisetIPKNS0_18extended_type_infoENS0_6detail11key_compareESaIS5_EEE12get_instanceEvE1t acquire, align 8
  %8 = icmp eq i8 %7, 0
  br i1 %8, label %9, label %_ZN5boost13serialization9singletonISt8multisetIPKNS0_18extended_type_infoENS0_6detail11key_compareESaIS5_EEE20get_mutable_instanceEv.exit, !prof !9

9:                                                ; preds = %6
  %10 = tail call i32 @__cxa_guard_acquire(ptr nonnull @_ZGVZN5boost13serialization9singletonISt8multisetIPKNS0_18extended_type_infoENS0_6detail11key_compareESaIS5_EEE12get_instanceEvE1t) #17
  %.not.i.i = icmp eq i32 %10, 0
  br i1 %.not.i.i, label %_ZN5boost13serialization9singletonISt8multisetIPKNS0_18extended_type_infoENS0_6detail11key_compareESaIS5_EEE20get_mutable_instanceEv.exit, label %11

11:                                               ; preds = %9
  store i32 0, ptr getelementptr inbounds (i8, ptr @_ZZN5boost13serialization9singletonISt8multisetIPKNS0_18extended_type_infoENS0_6detail11key_compareESaIS5_EEE12get_instanceEvE1t, i64 8), align 8, !tbaa !10
  store ptr null, ptr getelementptr inbounds (i8, ptr @_ZZN5boost13serialization9singletonISt8multisetIPKNS0_18extended_type_infoENS0_6detail11key_compareESaIS5_EEE12get_instanceEvE1t, i64 16), align 8, !tbaa !15
  store ptr getelementptr inbounds (i8, ptr @_ZZN5boost13serialization9singletonISt8multisetIPKNS0_18extended_type_infoENS0_6detail11key_compareESaIS5_EEE12get_instanceEvE1t, i64 8), ptr getelementptr inbounds (i8, ptr @_ZZN5boost13serialization9singletonISt8multisetIPKNS0_18extended_type_infoENS0_6detail11key_compareESaIS5_EEE12get_instanceEvE1t, i64 24), align 8, !tbaa !16
  store ptr getelementptr inbounds (i8, ptr @_ZZN5boost13serialization9singletonISt8multisetIPKNS0_18extended_type_infoENS0_6detail11key_compareESaIS5_EEE12get_instanceEvE1t, i64 8), ptr getelementptr inbounds (i8, ptr @_ZZN5boost13serialization9singletonISt8multisetIPKNS0_18extended_type_infoENS0_6detail11key_compareESaIS5_EEE12get_instanceEvE1t, i64 32), align 8, !tbaa !17
  store i64 0, ptr getelementptr inbounds (i8, ptr @_ZZN5boost13serialization9singletonISt8multisetIPKNS0_18extended_type_infoENS0_6detail11key_compareESaIS5_EEE12get_instanceEvE1t, i64 40), align 8, !tbaa !18
  %12 = tail call i32 @__cxa_atexit(ptr nonnull @_ZN5boost13serialization6detail17singleton_wrapperISt8multisetIPKNS0_18extended_type_infoENS1_11key_compareESaIS6_EEED2Ev, ptr nonnull @_ZZN5boost13serialization9singletonISt8multisetIPKNS0_18extended_type_infoENS0_6detail11key_compareESaIS5_EEE12get_instanceEvE1t, ptr nonnull @__dso_handle) #17
  tail call void @__cxa_guard_release(ptr nonnull @_ZGVZN5boost13serialization9singletonISt8multisetIPKNS0_18extended_type_infoENS0_6detail11key_compareESaIS5_EEE12get_instanceEvE1t) #17
  br label %_ZN5boost13serialization9singletonISt8multisetIPKNS0_18extended_type_infoENS0_6detail11key_compareESaIS5_EEE20get_mutable_instanceEv.exit

_ZN5boost13serialization9singletonISt8multisetIPKNS0_18extended_type_infoENS0_6detail11key_compareESaIS5_EEE20get_mutable_instanceEv.exit: ; preds = %6, %9, %11
  call void @llvm.lifetime.start.p0(i64 8, ptr nonnull %2) #17
  store ptr %0, ptr %2, align 8, !tbaa !19
  %13 = call ptr @_ZNSt8_Rb_treeIPKN5boost13serialization18extended_type_infoES4_St9_IdentityIS4_ENS1_6detail11key_compareESaIS4_EE15_M_insert_equalIS4_EESt17_Rb_tree_iteratorIS4_EOT_(ptr noundef nonnull align 8 dereferenceable(48) @_ZZN5boost13serialization9singletonISt8multisetIPKNS0_18extended_type_infoENS0_6detail11key_compareESaIS5_EEE12get_instanceEvE1t, ptr noundef nonnull align 8 dereferenceable(8) %2)
  call void @llvm.lifetime.end.p0(i64 8, ptr nonnull %2) #17
  br label %14

14:                                               ; preds = %1, %_ZN5boost13serialization9singletonISt8multisetIPKNS0_18extended_type_infoENS0_6detail11key_compareESaIS5_EEE20get_mutable_instanceEv.exit
  ret void
}